target datalayout = "e-m:e-p270:32:32-p271:32:32-p272:64:64-i64:64-i128:128-f80:128-n8:16:32:64-S128"
target triple = "x86_64-pc-linux-gnu"

%"class.std::__cxx11::basic_string" = type { %"struct.std::__cxx11::basic_string<char>::_Alloc_hider", i64, %union.anon }
%"struct.std::__cxx11::basic_string<char>::_Alloc_hider" = type { ptr }
%union.anon = type { i64, [8 x i8] }

@_ZTIN2mu11ParserErrorE = linkonce_odr constant { ptr, ptr } { ptr getelementptr inbounds (ptr, ptr @_ZTVN10__cxxabiv117__class_type_infoE, i64 2), ptr @_ZTSN2mu11ParserErrorE }, comdat, align 8
@.str.5 = private unnamed_addr constant [36 x i8] c"too few arguments for function min.\00", align 1

; Function Attrs: mustprogress nounwind uwtable
define linkonce_odr noundef nonnull align 8 dereferenceable(8) ptr @_ZSt3minIdERKT_S2_S2_(ptr noundef nonnull align 8 dereferenceable(8) %0, ptr noundef nonnull align 8 dereferenceable(8) %1) #0 comdat {
  %3 = alloca ptr, align 8
  %4 = alloca ptr, align 8
  %5 = alloca ptr, align 8
  store ptr %0, ptr %4, align 8
  store ptr %1, ptr %5, align 8
  %6 = load ptr, ptr %5, align 8
  %7 = load double, ptr %6, align 8
  %8 = load ptr, ptr %4, align 8
  %9 = load double, ptr %8, align 8
  %10 = fcmp olt double %7, %9
  br i1 %10, label %11, label %13

11:                                               ; preds = %2
  %12 = load ptr, ptr %5, align 8
  store ptr %12, ptr %3, align 8
  br label %15

13:                                               ; preds = %2
  %14 = load ptr, ptr %4, align 8
  store ptr %14, ptr %3, align 8
  br label %15

15:                                               ; preds = %13, %11
  %16 = load ptr, ptr %3, align 8
  ret ptr %16
}

; Function Attrs: mustprogress uwtable
define noundef double @_ZN2mu9ParserInt3MinEPKdi(ptr noundef %0, i32 noundef %1) #1 align 2 personality ptr @__gxx_personality_v0 {
  %3 = alloca ptr, align 8
  %4 = alloca i32, align 4
  %5 = alloca %"class.std::__cxx11::basic_string", align 8
  %6 = alloca ptr, align 8
  %7 = alloca i32, align 4
  %8 = alloca i1, align 1
  %9 = alloca double, align 8
  %10 = alloca i32, align 4
  store ptr %0, ptr %3, align 8
  store i32 %1, ptr %4, align 4
  %11 = load i32, ptr %4, align 4
  %12 = icmp ne i32 %11, 0
  br i1 %12, label %23, label %13

13:                                               ; preds = %2
  store i1 true, ptr %8, align 1
  %14 = call ptr @__cxa_allocate_exception(i64 112) #5
  call void @_ZNSt7__cxx1112basic_stringIcSt11char_traitsIcESaIcEEC1Ev(ptr noundef nonnull align 8 dereferenceable(32) %5) #5
  invoke void @_ZN2mu11ParserErrorC1EPKciRKNSt7__cxx1112basic_stringIcSt11char_traitsIcESaIcEEE(ptr noundef nonnull align 8 dereferenceable(112) %14, ptr noundef @.str.5, i32 noundef -1, ptr noundef nonnull align 8 dereferenceable(32) %5)
          to label %15 unwind label %16

15:                                               ; preds = %13
  store i1 false, ptr %8, align 1
  invoke void @__cxa_throw(ptr %14, ptr @_ZTIN2mu11ParserErrorE, ptr @_ZN2mu11ParserErrorD1Ev) #11
          to label %48 unwind label %16

16:                                               ; preds = %15, %13
  %17 = landingpad { ptr, i32 }
          cleanup
  %18 = extractvalue { ptr, i32 } %17, 0
  store ptr %18, ptr %6, align 8
  %19 = extractvalue { ptr, i32 } %17, 1
  store i32 %19, ptr %7, align 4
  call void @_ZNSt7__cxx1112basic_stringIcSt11char_traitsIcESaIcEED1Ev(ptr noundef nonnull align 8 dereferenceable(32) %5) #5
  %20 = load i1, ptr %8, align 1
  br i1 %20, label %21, label %22

21:                                               ; preds = %16
  call void @__cxa_free_exception(ptr %14) #5
  br label %22

22:                                               ; preds = %21, %16
  br label %43

23:                                               ; preds = %2
  %24 = load ptr, ptr %3, align 8
  %25 = getelementptr inbounds double, ptr %24, i64 0
  %26 = load double, ptr %25, align 8
  store double %26, ptr %9, align 8
  store i32 0, ptr %10, align 4
  br label %27

27:                                               ; preds = %38, %23
  %28 = load i32, ptr %10, align 4
  %29 = load i32, ptr %4, align 4
  %30 = icmp slt i32 %28, %29
  br i1 %30, label %31, label %41

31:                                               ; preds = %27
  %32 = load ptr, ptr %3, align 8
  %33 = load i32, ptr %10, align 4
  %34 = sext i32 %33 to i64
  %35 = getelementptr inbounds double, ptr %32, i64 %34
  %36 = call noundef nonnull align 8 dereferenceable(8) ptr @_ZSt3minIdERKT_S2_S2_(ptr noundef nonnull align 8 dereferenceable(8) %9, ptr noundef nonnull align 8 dereferenceable(8) %35)
  %37 = load double, ptr %36, align 8
  store double %37, ptr %9, align 8
  br label %38

38:                                               ; preds = %31
  %39 = load i32, ptr %10, align 4
  %40 = add nsw i32 %39, 1
  store i32 %40, ptr %10, align 4
  br label %27, !llvm.loop !7

41:                                               ; preds = %27
  %42 = load double, ptr %9, align 8
  ret double %42

43:                                               ; preds = %22
  %44 = load ptr, ptr %6, align 8
  %45 = load i32, ptr %7, align 4
  %46 = insertvalue { ptr, i32 } poison, ptr %44, 0
  %47 = insertvalue { ptr, i32 } %46, i32 %45, 1
  resume { ptr, i32 } %47

48:                                               ; preds = %15
  unreachable
}